target datalayout = "e-m:e-p270:32:32-p271:32:32-p272:64:64-i64:64-i128:128-f80:128-n8:16:32:64-S128"
target triple = "x86_64-pc-linux-gnu"

%"class.std::__cxx11::basic_string" = type { %"struct.std::__cxx11::basic_string<char>::_Alloc_hider", i64, %union.anon }
%"struct.std::__cxx11::basic_string<char>::_Alloc_hider" = type { ptr }
%union.anon = type { i64, [8 x i8] }
%"class.Luau::DenseHashMap" = type { %"class.Luau::detail::DenseHashTable" }
%"class.Luau::detail::DenseHashTable" = type <{ ptr, i64, i64, ptr, [8 x i8] }>
%"struct.std::pair" = type { ptr, ptr }

; Function Attrs: mustprogress nounwind uwtable
define linkonce_odr dso_local void @_ZN4Luau6detail16ItemInterfaceMapIPNS_7AstNodeEPNS_7CstNodeEE7destroyEPSt4pairIS3_S5_Em(ptr noundef %0, i64 noundef %1) #2 comdat align 2 {
  %3 = alloca ptr, align 8
  %4 = alloca i64, align 8
  %5 = alloca i64, align 8
  store ptr %0, ptr %3, align 8, !tbaa !631
  store i64 %1, ptr %4, align 8, !tbaa !69
  call void @llvm.lifetime.start.p0(i64 8, ptr %5) #4
  store i64 0, ptr %5, align 8, !tbaa !69
  br label %6

6:                                                ; preds = %12, %2
  %7 = load i64, ptr %5, align 8, !tbaa !69
  %8 = load i64, ptr %4, align 8, !tbaa !69
  %9 = icmp ult i64 %7, %8
  br i1 %9, label %11, label %10

10:                                               ; preds = %6
  call void @llvm.lifetime.end.p0(i64 8, ptr %5) #4
  br label %15

11:                                               ; preds = %6
  br label %12

12:                                               ; preds = %11
  %13 = load i64, ptr %5, align 8, !tbaa !69
  %14 = add i64 %13, 1
  store i64 %14, ptr %5, align 8, !tbaa !69
  br label %6, !llvm.loop !632

15:                                               ; preds = %10
  ret void
}

; Function Attrs: noinline noreturn nounwind uwtable
define linkonce_odr hidden void @__clang_call_terminate(ptr noundef %0) #13 comdat {
  %2 = call ptr @__cxa_begin_catch(ptr %0) #4
  call void @_ZSt9terminatev() #20
  unreachable
}

; Function Attrs: mustprogress uwtable
define linkonce_odr dso_local void @_ZN4Luau6detail14DenseHashTableIPNS_7AstNodeESt4pairIS3_PNS_7CstNodeEES4_IKS3_S6_ENS0_16ItemInterfaceMapIS3_S6_EENS_16DenseHashPointerESt8equal_toIS3_EE7destroyEv(ptr noundef nonnull align 8 dereferenceable(34) %0) #3 comdat align 2 {
  %2 = alloca ptr, align 8
  store ptr %0, ptr %2, align 8, !tbaa !625
  %3 = load ptr, ptr %2, align 8
  %4 = getelementptr inbounds nuw %"class.Luau::detail::DenseHashTable", ptr %3, i32 0, i32 0
  %5 = load ptr, ptr %4, align 8, !tbaa !627
  %6 = getelementptr inbounds nuw %"class.Luau::detail::DenseHashTable", ptr %3, i32 0, i32 1
  %7 = load i64, ptr %6, align 8, !tbaa !628
  call void @_ZN4Luau6detail16ItemInterfaceMapIPNS_7AstNodeEPNS_7CstNodeEE7destroyEPSt4pairIS3_S5_Em(ptr noundef %5, i64 noundef %7)
  %8 = getelementptr inbounds nuw %"class.Luau::detail::DenseHashTable", ptr %3, i32 0, i32 0
  %9 = load ptr, ptr %8, align 8, !tbaa !627
  call void @_ZdlPv(ptr noundef %9) #4
  %10 = getelementptr inbounds nuw %"class.Luau::detail::DenseHashTable", ptr %3, i32 0, i32 0
  store ptr null, ptr %10, align 8, !tbaa !627
  %11 = getelementptr inbounds nuw %"class.Luau::detail::DenseHashTable", ptr %3, i32 0, i32 1
  store i64 0, ptr %11, align 8, !tbaa !628
  ret void
}

; Function Attrs: mustprogress nounwind uwtable
define linkonce_odr dso_local void @_ZN4Luau6detail16ItemInterfaceMapIPNS_7AstNodeEPNS_7CstNodeEE4fillEPSt4pairIS3_S5_EmRKS3_(ptr noundef %0, i64 noundef %1, ptr noundef nonnull align 8 dereferenceable(8) %2) #2 comdat align 2 {
  %4 = alloca ptr, align 8
  %5 = alloca i64, align 8
  %6 = alloca ptr, align 8
  %7 = alloca i64, align 8
  store ptr %0, ptr %4, align 8, !tbaa !631
  store i64 %1, ptr %5, align 8, !tbaa !69
  store ptr %2, ptr %6, align 8, !tbaa !66
  call void @llvm.lifetime.start.p0(i64 8, ptr %7) #4
  store i64 0, ptr %7, align 8, !tbaa !69
  br label %8

8:                                                ; preds = %24, %3
  %9 = load i64, ptr %7, align 8, !tbaa !69
  %10 = load i64, ptr %5, align 8, !tbaa !69
  %11 = icmp ult i64 %9, %10
  br i1 %11, label %13, label %12

12:                                               ; preds = %8
  call void @llvm.lifetime.end.p0(i64 8, ptr %7) #4
  br label %27

13:                                               ; preds = %8
  %14 = load ptr, ptr %4, align 8, !tbaa !631
  %15 = load i64, ptr %7, align 8, !tbaa !69
  %16 = getelementptr inbounds nuw %"struct.std::pair", ptr %14, i64 %15
  %17 = getelementptr inbounds nuw %"struct.std::pair", ptr %16, i32 0, i32 0
  %18 = load ptr, ptr %6, align 8, !tbaa !66
  %19 = load ptr, ptr %18, align 8, !tbaa !28
  store ptr %19, ptr %17, align 8, !tbaa !28
  %20 = load ptr, ptr %4, align 8, !tbaa !631
  %21 = load i64, ptr %7, align 8, !tbaa !69
  %22 = getelementptr inbounds nuw %"struct.std::pair", ptr %20, i64 %21
  %23 = getelementptr inbounds nuw %"struct.std::pair", ptr %22, i32 0, i32 1
  store ptr null, ptr %23, align 8, !tbaa !636
  br label %24

24:                                               ; preds = %13
  %25 = load i64, ptr %7, align 8, !tbaa !69
  %26 = add i64 %25, 1
  store i64 %26, ptr %7, align 8, !tbaa !69
  br label %8, !llvm.loop !704

27:                                               ; preds = %12
  ret void
}

; Function Attrs: mustprogress nounwind uwtable
define linkonce_odr dso_local void @_ZN4Luau6detail14DenseHashTableIPNS_7AstNodeESt4pairIS3_PNS_7CstNodeEES4_IKS3_S6_ENS0_16ItemInterfaceMapIS3_S6_EENS_16DenseHashPointerESt8equal_toIS3_EED2Ev(ptr noundef nonnull align 8 dereferenceable(34) %0) unnamed_addr #2 comdat align 2 personality ptr @__gxx_personality_v0 {
  %2 = alloca ptr, align 8
  store ptr %0, ptr %2, align 8, !tbaa !625
  %3 = load ptr, ptr %2, align 8
  %4 = getelementptr inbounds nuw %"class.Luau::detail::DenseHashTable", ptr %3, i32 0, i32 0
  %5 = load ptr, ptr %4, align 8, !tbaa !627
  %6 = icmp ne ptr %5, null
  br i1 %6, label %7, label %9

7:                                                ; preds = %1
  invoke void @_ZN4Luau6detail14DenseHashTableIPNS_7AstNodeESt4pairIS3_PNS_7CstNodeEES4_IKS3_S6_ENS0_16ItemInterfaceMapIS3_S6_EENS_16DenseHashPointerESt8equal_toIS3_EE7destroyEv(ptr noundef nonnull align 8 dereferenceable(34) %3)
          to label %8 unwind label %10

8:                                                ; preds = %7
  br label %9

9:                                                ; preds = %8, %1
  ret void

10:                                               ; preds = %7
  %11 = landingpad { ptr, i32 }
          catch ptr null
  %12 = extractvalue { ptr, i32 } %11, 0
  call void @__clang_call_terminate(ptr %12) #20
  unreachable
}

; Function Attrs: mustprogress uwtable
define linkonce_odr dso_local void @_ZN4Luau6detail14DenseHashTableIPNS_7AstNodeESt4pairIS3_PNS_7CstNodeEES4_IKS3_S6_ENS0_16ItemInterfaceMapIS3_S6_EENS_16DenseHashPointerESt8equal_toIS3_EEC2ERS8_m(ptr noundef nonnull align 8 dereferenceable(34) %0, ptr noundef nonnull align 8 dereferenceable(8) %1, i64 noundef %2) unnamed_addr #3 comdat align 2 {
  %4 = alloca ptr, align 8
  %5 = alloca ptr, align 8
  %6 = alloca i64, align 8
  store ptr %0, ptr %4, align 8, !tbaa !625
  store ptr %1, ptr %5, align 8, !tbaa !66
  store i64 %2, ptr %6, align 8, !tbaa !69
  %7 = load ptr, ptr %4, align 8
  %8 = getelementptr inbounds nuw %"class.Luau::detail::DenseHashTable", ptr %7, i32 0, i32 0
  store ptr null, ptr %8, align 8, !tbaa !627
  %9 = getelementptr inbounds nuw %"class.Luau::detail::DenseHashTable", ptr %7, i32 0, i32 1
  store i64 0, ptr %9, align 8, !tbaa !628
  %10 = getelementptr inbounds nuw %"class.Luau::detail::DenseHashTable", ptr %7, i32 0, i32 2
  store i64 0, ptr %10, align 8, !tbaa !629
  %11 = getelementptr inbounds nuw %"class.Luau::detail::DenseHashTable", ptr %7, i32 0, i32 3
  %12 = load ptr, ptr %5, align 8, !tbaa !66
  %13 = load ptr, ptr %12, align 8, !tbaa !28
  store ptr %13, ptr %11, align 8, !tbaa !630
  %14 = load i64, ptr %6, align 8, !tbaa !69
  %15 = icmp ne i64 %14, 0
  br i1 %15, label %16, label %27

16:                                               ; preds = %3
  %17 = load i64, ptr %6, align 8, !tbaa !69
  %18 = mul i64 16, %17
  %19 = call noalias noundef nonnull ptr @_Znwm(i64 noundef %18) #22
  %20 = getelementptr inbounds nuw %"class.Luau::detail::DenseHashTable", ptr %7, i32 0, i32 0
  store ptr %19, ptr %20, align 8, !tbaa !627
  %21 = load i64, ptr %6, align 8, !tbaa !69
  %22 = getelementptr inbounds nuw %"class.Luau::detail::DenseHashTable", ptr %7, i32 0, i32 1
  store i64 %21, ptr %22, align 8, !tbaa !628
  %23 = getelementptr inbounds nuw %"class.Luau::detail::DenseHashTable", ptr %7, i32 0, i32 0
  %24 = load ptr, ptr %23, align 8, !tbaa !627
  %25 = load i64, ptr %6, align 8, !tbaa !69
  %26 = load ptr, ptr %5, align 8, !tbaa !66
  call void @_ZN4Luau6detail16ItemInterfaceMapIPNS_7AstNodeEPNS_7CstNodeEE4fillEPSt4pairIS3_S5_EmRKS3_(ptr noundef %24, i64 noundef %25, ptr noundef nonnull align 8 dereferenceable(8) %26)
  br label %27

27:                                               ; preds = %16, %3
  ret void
}

; Function Attrs: inlinehint mustprogress nounwind uwtable
define linkonce_odr dso_local void @_ZN4Luau12DenseHashMapIPNS_7AstNodeEPNS_7CstNodeENS_16DenseHashPointerESt8equal_toIS2_EED2Ev(ptr noundef nonnull align 8 dereferenceable(40) %0) unnamed_addr #8 comdat align 2 {
  %2 = alloca ptr, align 8
  store ptr %0, ptr %2, align 8, !tbaa !64
  %3 = load ptr, ptr %2, align 8
  %4 = getelementptr inbounds nuw %"class.Luau::DenseHashMap", ptr %3, i32 0, i32 0
  call void @_ZN4Luau6detail14DenseHashTableIPNS_7AstNodeESt4pairIS3_PNS_7CstNodeEES4_IKS3_S6_ENS0_16ItemInterfaceMapIS3_S6_EENS_16DenseHashPointerESt8equal_toIS3_EED2Ev(ptr noundef nonnull align 8 dereferenceable(34) %4) #4
  ret void
}

; Function Attrs: mustprogress uwtable
define linkonce_odr dso_local void @_ZN4Luau12DenseHashMapIPNS_7AstNodeEPNS_7CstNodeENS_16DenseHashPointerESt8equal_toIS2_EEC2ERKS2_m(ptr noundef nonnull align 8 dereferenceable(40) %0, ptr noundef nonnull align 8 dereferenceable(8) %1, i64 noundef %2) unnamed_addr #3 comdat align 2 {
  %4 = alloca ptr, align 8
  %5 = alloca ptr, align 8
  %6 = alloca i64, align 8
  store ptr %0, ptr %4, align 8, !tbaa !64
  store ptr %1, ptr %5, align 8, !tbaa !66
  store i64 %2, ptr %6, align 8, !tbaa !69
  %7 = load ptr, ptr %4, align 8
  %8 = getelementptr inbounds nuw %"class.Luau::DenseHashMap", ptr %7, i32 0, i32 0
  %9 = load ptr, ptr %5, align 8, !tbaa !66
  %10 = load i64, ptr %6, align 8, !tbaa !69
  call void @_ZN4Luau6detail14DenseHashTableIPNS_7AstNodeESt4pairIS3_PNS_7CstNodeEES4_IKS3_S6_ENS0_16ItemInterfaceMapIS3_S6_EENS_16DenseHashPointerESt8equal_toIS3_EEC2ERS8_m(ptr noundef nonnull align 8 dereferenceable(34) %8, ptr noundef nonnull align 8 dereferenceable(8) %9, i64 noundef %10)
  ret void
}

; Function Attrs: mustprogress uwtable
define dso_local void @_ZN4Luau18transpileWithTypesB5cxx11ERNS_12AstStatBlockE(ptr dead_on_unwind noalias writable sret(%"class.std::__cxx11::basic_string") align 8 %0, ptr noundef nonnull align 8 dereferenceable(49) %1) #3 personality ptr @__gxx_personality_v0 {
  %3 = alloca ptr, align 8
  %4 = alloca ptr, align 8
  %5 = alloca %"class.Luau::DenseHashMap", align 8
  %6 = alloca ptr, align 8
  %7 = alloca ptr, align 8
  %8 = alloca i32, align 4
  store ptr %0, ptr %3, align 8
  store ptr %1, ptr %4, align 8, !tbaa !73
  %9 = load ptr, ptr %4, align 8, !tbaa !73
  call void @llvm.lifetime.start.p0(i64 40, ptr %5) #4
  call void @llvm.lifetime.start.p0(i64 8, ptr %6) #4
  store ptr null, ptr %6, align 8, !tbaa !28
  call void @_ZN4Luau12DenseHashMapIPNS_7AstNodeEPNS_7CstNodeENS_16DenseHashPointerESt8equal_toIS2_EEC2ERKS2_m(ptr noundef nonnull align 8 dereferenceable(40) %5, ptr noundef nonnull align 8 dereferenceable(8) %6, i64 noundef 0)
  invoke void @_ZN4Luau18transpileWithTypesB5cxx11ERNS_12AstStatBlockERKNS_12DenseHashMapIPNS_7AstNodeEPNS_7CstNodeENS_16DenseHashPointerESt8equal_toIS4_EEE(ptr dead_on_unwind writable sret(%"class.std::__cxx11::basic_string") align 8 %0, ptr noundef nonnull align 8 dereferenceable(49) %9, ptr noundef nonnull align 8 dereferenceable(40) %5)
          to label %10 unwind label %11

10:                                               ; preds = %2
  call void @_ZN4Luau12DenseHashMapIPNS_7AstNodeEPNS_7CstNodeENS_16DenseHashPointerESt8equal_toIS2_EED2Ev(ptr noundef nonnull align 8 dereferenceable(40) %5) #4
  call void @llvm.lifetime.end.p0(i64 8, ptr %6) #4
  call void @llvm.lifetime.end.p0(i64 40, ptr %5) #4
  ret void

11:                                               ; preds = %2
  %12 = landingpad { ptr, i32 }
          cleanup
  %13 = extractvalue { ptr, i32 } %12, 0
  store ptr %13, ptr %7, align 8
  %14 = extractvalue { ptr, i32 } %12, 1
  store i32 %14, ptr %8, align 4
  call void @_ZN4Luau12DenseHashMapIPNS_7AstNodeEPNS_7CstNodeENS_16DenseHashPointerESt8equal_toIS2_EED2Ev(ptr noundef nonnull align 8 dereferenceable(40) %5) #4
  call void @llvm.lifetime.end.p0(i64 8, ptr %6) #4
  call void @llvm.lifetime.end.p0(i64 40, ptr %5) #4
  br label %15

15:                                               ; preds = %11
  %16 = load ptr, ptr %7, align 8
  %17 = load i32, ptr %8, align 4
  %18 = insertvalue { ptr, i32 } poison, ptr %16, 0
  %19 = insertvalue { ptr, i32 } %18, i32 %17, 1
  resume { ptr, i32 } %19
}