; Function Attrs: mustprogress uwtable
define dso_local void @_ZN4Luau18transpileWithTypesB5cxx11ERNS_12AstStatBlockE(ptr dead_on_unwind noalias writable sret(%"class.std::__cxx11::basic_string") align 8 %0, ptr noundef nonnull align 8 dereferenceable(49) %1) local_unnamed_addr #4 personality ptr @__gxx_personality_v0 {
_ZN4Luau12DenseHashMapIPNS_7AstNodeEPNS_7CstNodeENS_16DenseHashPointerESt8equal_toIS2_EED2Ev.exit:
  %2 = alloca %"class.Luau::DenseHashMap", align 8
  call void @llvm.lifetime.start.p0(i64 40, ptr nonnull %2) #22
  call void @llvm.memset.p0.i64(ptr noundef nonnull align 8 dereferenceable(32) %2, i8 0, i64 32, i1 false)
  call void @_ZN4Luau18transpileWithTypesB5cxx11ERNS_12AstStatBlockERKNS_12DenseHashMapIPNS_7AstNodeEPNS_7CstNodeENS_16DenseHashPointerESt8equal_toIS4_EEE(ptr dead_on_unwind writable sret(%"class.std::__cxx11::basic_string") align 8 %0, ptr noundef nonnull align 8 dereferenceable(49) %1, ptr noundef nonnull align 8 dereferenceable(40) %2)
  call void @llvm.lifetime.end.p0(i64 40, ptr nonnull %2) #22
  ret void
}